target datalayout = "e-m:e-p270:32:32-p271:32:32-p272:64:64-i64:64-i128:128-f80:128-n8:16:32:64-S128"
target triple = "x86_64-unknown-linux-gnu"

%"class.std::__cxx11::basic_string" = type { %"struct.std::__cxx11::basic_string<char>::_Alloc_hider", i64, %union.anon.8 }
%"struct.std::__cxx11::basic_string<char>::_Alloc_hider" = type { ptr }
%union.anon.8 = type { i64, [8 x i8] }
%"class.std::allocator.5" = type { i8 }
%"class.Assimp::FBX::Token" = type <{ ptr, ptr, i32, [4 x i8], %union.anon, i32, [4 x i8] }>
%union.anon = type { i64 }

@.str.9 = private unnamed_addr constant [24 x i8] c"expected TOK_DATA token\00", align 1
@.str.17 = private unnamed_addr constant [44 x i8] c"failed to parse Int64, unexpected data type\00", align 1
@.str.18 = private unnamed_addr constant [29 x i8] c"failed to parse Int64 (text)\00", align 1

; Function Attrs: mustprogress uwtable
define linkonce_odr hidden noundef i64 @_ZN6Assimp11strtol10_64I17DeadlyImportErrorEElPKcPS3_Pj(ptr noundef %in, ptr noundef %out, ptr noundef %max_inout) #6 comdat {
entry:
  %in.addr = alloca ptr, align 8
  %out.addr = alloca ptr, align 8
  %max_inout.addr = alloca ptr, align 8
  %inv = alloca i8, align 1
  %value = alloca i64, align 8
  store ptr %in, ptr %in.addr, align 8
  store ptr %out, ptr %out.addr, align 8
  store ptr %max_inout, ptr %max_inout.addr, align 8
  %0 = load ptr, ptr %in.addr, align 8
  %1 = load i8, ptr %0, align 1
  %conv = sext i8 %1 to i32
  %cmp = icmp eq i32 %conv, 45
  %frombool = zext i1 %cmp to i8
  store i8 %frombool, ptr %inv, align 1
  %2 = load i8, ptr %inv, align 1
  %tobool = trunc i8 %2 to i1
  br i1 %tobool, label %if.then, label %lor.lhs.false

lor.lhs.false:                                    ; preds = %entry
  %3 = load ptr, ptr %in.addr, align 8
  %4 = load i8, ptr %3, align 1
  %conv1 = sext i8 %4 to i32
  %cmp2 = icmp eq i32 %conv1, 43
  br i1 %cmp2, label %if.then, label %if.end

if.then:                                          ; preds = %lor.lhs.false, %entry
  %5 = load ptr, ptr %in.addr, align 8
  %incdec.ptr = getelementptr inbounds i8, ptr %5, i32 1
  store ptr %incdec.ptr, ptr %in.addr, align 8
  br label %if.end

if.end:                                           ; preds = %if.then, %lor.lhs.false
  %6 = load ptr, ptr %in.addr, align 8
  %7 = load ptr, ptr %out.addr, align 8
  %8 = load ptr, ptr %max_inout.addr, align 8
  %call = call noundef i64 @_ZN6Assimp12strtoul10_64I17DeadlyImportErrorEEmPKcPS3_Pj(ptr noundef %6, ptr noundef %7, ptr noundef %8)
  store i64 %call, ptr %value, align 8
  %9 = load i8, ptr %inv, align 1
  %tobool3 = trunc i8 %9 to i1
  br i1 %tobool3, label %if.then4, label %if.end5

if.then4:                                         ; preds = %if.end
  %10 = load i64, ptr %value, align 8
  %sub = sub nsw i64 0, %10
  store i64 %sub, ptr %value, align 8
  br label %if.end5

if.end5:                                          ; preds = %if.then4, %if.end
  %11 = load i64, ptr %value, align 8
  ret i64 %11
}

; Function Attrs: mustprogress nounwind uwtable
define internal noundef i64 @_ZN12_GLOBAL__N_19SafeParseIlEET_PKcS3_(ptr noundef %data, ptr noundef %end) #0 {
entry:
  %data.addr = alloca ptr, align 8
  %end.addr = alloca ptr, align 8
  %result = alloca i64, align 8
  store ptr %data, ptr %data.addr, align 8
  store ptr %end, ptr %end.addr, align 8
  store i64 0, ptr %result, align 8
  %0 = load ptr, ptr %data.addr, align 8
  call void @llvm.memcpy.p0.p0.i64(ptr align 8 %result, ptr align 1 %0, i64 8, i1 false)
  %1 = load i64, ptr %result, align 8
  ret i64 %1
}

; Function Attrs: mustprogress nounwind uwtable
define linkonce_odr hidden noundef ptr @_ZNK6Assimp3FBX5Token3endEv(ptr noundef nonnull align 8 dereferenceable(36) %this) #0 comdat align 2 {
entry:
  %this.addr = alloca ptr, align 8
  store ptr %this, ptr %this.addr, align 8
  %this1 = load ptr, ptr %this.addr, align 8
  %send = getelementptr inbounds %"class.Assimp::FBX::Token", ptr %this1, i32 0, i32 1
  %0 = load ptr, ptr %send, align 8
  ret ptr %0
}

; Function Attrs: mustprogress nounwind uwtable
define linkonce_odr hidden noundef ptr @_ZNK6Assimp3FBX5Token5beginEv(ptr noundef nonnull align 8 dereferenceable(36) %this) #0 comdat align 2 {
entry:
  %this.addr = alloca ptr, align 8
  store ptr %this, ptr %this.addr, align 8
  %this1 = load ptr, ptr %this.addr, align 8
  %sbegin = getelementptr inbounds %"class.Assimp::FBX::Token", ptr %this1, i32 0, i32 0
  %0 = load ptr, ptr %sbegin, align 8
  ret ptr %0
}

; Function Attrs: mustprogress nounwind uwtable
define linkonce_odr hidden noundef zeroext i1 @_ZNK6Assimp3FBX5Token8IsBinaryEv(ptr noundef nonnull align 8 dereferenceable(36) %this) #0 comdat align 2 {
entry:
  %this.addr = alloca ptr, align 8
  store ptr %this, ptr %this.addr, align 8
  %this1 = load ptr, ptr %this.addr, align 8
  %column = getelementptr inbounds %"class.Assimp::FBX::Token", ptr %this1, i32 0, i32 5
  %0 = load i32, ptr %column, align 8
  %cmp = icmp eq i32 %0, -1
  ret i1 %cmp
}

; Function Attrs: mustprogress nounwind uwtable
define linkonce_odr hidden noundef i32 @_ZNK6Assimp3FBX5Token4TypeEv(ptr noundef nonnull align 8 dereferenceable(36) %this) #0 comdat align 2 {
entry:
  %this.addr = alloca ptr, align 8
  store ptr %this, ptr %this.addr, align 8
  %this1 = load ptr, ptr %this.addr, align 8
  %type = getelementptr inbounds %"class.Assimp::FBX::Token", ptr %this1, i32 0, i32 2
  %0 = load i32, ptr %type, align 8
  ret i32 %0
}

; Function Attrs: mustprogress uwtable
define hidden noundef i64 @_ZN6Assimp3FBX17ParseTokenAsInt64ERKNS0_5TokenERPKc(ptr noundef nonnull align 8 dereferenceable(36) %t, ptr noundef nonnull align 8 dereferenceable(8) %err_out) #6 {
entry:
  %retval = alloca i64, align 8
  %t.addr = alloca ptr, align 8
  %err_out.addr = alloca ptr, align 8
  %data = alloca ptr, align 8
  %id = alloca i64, align 8
  %length = alloca i32, align 4
  %out = alloca ptr, align 8
  %id13 = alloca i64, align 8
  store ptr %t, ptr %t.addr, align 8
  store ptr %err_out, ptr %err_out.addr, align 8
  %0 = load ptr, ptr %err_out.addr, align 8
  store ptr null, ptr %0, align 8
  %1 = load ptr, ptr %t.addr, align 8
  %call = call noundef i32 @_ZNK6Assimp3FBX5Token4TypeEv(ptr noundef nonnull align 8 dereferenceable(36) %1)
  %cmp = icmp ne i32 %call, 2
  br i1 %cmp, label %if.then, label %if.end

if.then:                                          ; preds = %entry
  %2 = load ptr, ptr %err_out.addr, align 8
  store ptr @.str.9, ptr %2, align 8
  store i64 0, ptr %retval, align 8
  br label %return

if.end:                                           ; preds = %entry
  %3 = load ptr, ptr %t.addr, align 8
  %call1 = call noundef zeroext i1 @_ZNK6Assimp3FBX5Token8IsBinaryEv(ptr noundef nonnull align 8 dereferenceable(36) %3)
  br i1 %call1, label %if.then2, label %if.end9

if.then2:                                         ; preds = %if.end
  %4 = load ptr, ptr %t.addr, align 8
  %call3 = call noundef ptr @_ZNK6Assimp3FBX5Token5beginEv(ptr noundef nonnull align 8 dereferenceable(36) %4)
  store ptr %call3, ptr %data, align 8
  %5 = load ptr, ptr %data, align 8
  %arrayidx = getelementptr inbounds i8, ptr %5, i64 0
  %6 = load i8, ptr %arrayidx, align 1
  %conv = sext i8 %6 to i32
  %cmp4 = icmp ne i32 %conv, 76
  br i1 %cmp4, label %if.then5, label %if.end6

if.then5:                                         ; preds = %if.then2
  %7 = load ptr, ptr %err_out.addr, align 8
  store ptr @.str.17, ptr %7, align 8
  store i64 0, ptr %retval, align 8
  br label %return

if.end6:                                          ; preds = %if.then2
  %8 = load ptr, ptr %data, align 8
  %add.ptr = getelementptr inbounds i8, ptr %8, i64 1
  %9 = load ptr, ptr %t.addr, align 8
  %call7 = call noundef ptr @_ZNK6Assimp3FBX5Token3endEv(ptr noundef nonnull align 8 dereferenceable(36) %9)
  %call8 = call noundef i64 @_ZN12_GLOBAL__N_19SafeParseIlEET_PKcS3_(ptr noundef %add.ptr, ptr noundef %call7)
  store i64 %call8, ptr %id, align 8
  %10 = load i64, ptr %id, align 8
  store i64 %10, ptr %retval, align 8
  br label %return

if.end9:                                          ; preds = %if.end
  %11 = load ptr, ptr %t.addr, align 8
  %call10 = call noundef ptr @_ZNK6Assimp3FBX5Token3endEv(ptr noundef nonnull align 8 dereferenceable(36) %11)
  %12 = load ptr, ptr %t.addr, align 8
  %call11 = call noundef ptr @_ZNK6Assimp3FBX5Token5beginEv(ptr noundef nonnull align 8 dereferenceable(36) %12)
  %sub.ptr.lhs.cast = ptrtoint ptr %call10 to i64
  %sub.ptr.rhs.cast = ptrtoint ptr %call11 to i64
  %sub.ptr.sub = sub i64 %sub.ptr.lhs.cast, %sub.ptr.rhs.cast
  %conv12 = trunc i64 %sub.ptr.sub to i32
  store i32 %conv12, ptr %length, align 4
  store ptr null, ptr %out, align 8
  %13 = load ptr, ptr %t.addr, align 8
  %call14 = call noundef ptr @_ZNK6Assimp3FBX5Token5beginEv(ptr noundef nonnull align 8 dereferenceable(36) %13)
  %call15 = call noundef i64 @_ZN6Assimp11strtol10_64I17DeadlyImportErrorEElPKcPS3_Pj(ptr noundef %call14, ptr noundef %out, ptr noundef %length)
  store i64 %call15, ptr %id13, align 8
  %14 = load ptr, ptr %out, align 8
  %15 = load ptr, ptr %t.addr, align 8
  %call16 = call noundef ptr @_ZNK6Assimp3FBX5Token3endEv(ptr noundef nonnull align 8 dereferenceable(36) %15)
  %cmp17 = icmp ugt ptr %14, %call16
  br i1 %cmp17, label %if.then18, label %if.end19

if.then18:                                        ; preds = %if.end9
  %16 = load ptr, ptr %err_out.addr, align 8
  store ptr @.str.18, ptr %16, align 8
  store i64 0, ptr %retval, align 8
  br label %return

if.end19:                                         ; preds = %if.end9
  %17 = load i64, ptr %id13, align 8
  store i64 %17, ptr %retval, align 8
  br label %return

return:                                           ; preds = %if.end19, %if.then18, %if.end6, %if.then5, %if.then
  %18 = load i64, ptr %retval, align 8
  ret i64 %18
}

; Function Attrs: mustprogress uwtable
define hidden noundef i64 @_ZN6Assimp3FBX17ParseTokenAsInt64ERKNS0_5TokenE(ptr noundef nonnull align 8 dereferenceable(36) %t) #6 personality ptr @__gxx_personality_v0 {
entry:
  %t.addr = alloca ptr, align 8
  %err = alloca ptr, align 8
  %i = alloca i64, align 8
  %ref.tmp = alloca %"class.std::__cxx11::basic_string", align 8
  %ref.tmp1 = alloca %"class.std::allocator.5", align 1
  %exn.slot = alloca ptr, align 8
  %ehselector.slot = alloca i32, align 4
  store ptr %t, ptr %t.addr, align 8
  %0 = load ptr, ptr %t.addr, align 8
  %call = call noundef i64 @_ZN6Assimp3FBX17ParseTokenAsInt64ERKNS0_5TokenERPKc(ptr noundef nonnull align 8 dereferenceable(36) %0, ptr noundef nonnull align 8 dereferenceable(8) %err)
  store i64 %call, ptr %i, align 8
  %1 = load ptr, ptr %err, align 8
  %tobool = icmp ne ptr %1, null
  br i1 %tobool, label %if.then, label %if.end

if.then:                                          ; preds = %entry
  %2 = load ptr, ptr %err, align 8
  call void @_ZNSaIcEC1Ev(ptr noundef nonnull align 1 dereferenceable(1) %ref.tmp1) #5
  invoke void @_ZNSt7__cxx1112basic_stringIcSt11char_traitsIcESaIcEEC2IS3_EEPKcRKS3_(ptr noundef nonnull align 8 dereferenceable(32) %ref.tmp, ptr noundef %2, ptr noundef nonnull align 1 dereferenceable(1) %ref.tmp1)
          to label %invoke.cont unwind label %lpad

invoke.cont:                                      ; preds = %if.then
  %3 = load ptr, ptr %t.addr, align 8
  invoke void @_ZN12_GLOBAL__N_110ParseErrorERKNSt7__cxx1112basic_stringIcSt11char_traitsIcESaIcEEERKN6Assimp3FBX5TokenE(ptr noundef nonnull align 8 dereferenceable(32) %ref.tmp, ptr noundef nonnull align 8 dereferenceable(36) %3) #16
          to label %invoke.cont3 unwind label %lpad2

invoke.cont3:                                     ; preds = %invoke.cont
  unreachable

lpad:                                             ; preds = %if.then
  %4 = landingpad { ptr, i32 }
          cleanup
  %5 = extractvalue { ptr, i32 } %4, 0
  store ptr %5, ptr %exn.slot, align 8
  %6 = extractvalue { ptr, i32 } %4, 1
  store i32 %6, ptr %ehselector.slot, align 4
  br label %ehcleanup

lpad2:                                            ; preds = %invoke.cont
  %7 = landingpad { ptr, i32 }
          cleanup
  %8 = extractvalue { ptr, i32 } %7, 0
  store ptr %8, ptr %exn.slot, align 8
  %9 = extractvalue { ptr, i32 } %7, 1
  store i32 %9, ptr %ehselector.slot, align 4
  call void @_ZNSt7__cxx1112basic_stringIcSt11char_traitsIcESaIcEED1Ev(ptr noundef nonnull align 8 dereferenceable(32) %ref.tmp) #5
  br label %ehcleanup

ehcleanup:                                        ; preds = %lpad2, %lpad
  call void @_ZNSaIcED1Ev(ptr noundef nonnull align 1 dereferenceable(1) %ref.tmp1) #5
  br label %eh.resume

if.end:                                           ; preds = %entry
  %10 = load i64, ptr %i, align 8
  ret i64 %10

eh.resume:                                        ; preds = %ehcleanup
  %exn = load ptr, ptr %exn.slot, align 8
  %sel = load i32, ptr %ehselector.slot, align 4
  %lpad.val = insertvalue { ptr, i32 } poison, ptr %exn, 0
  %lpad.val4 = insertvalue { ptr, i32 } %lpad.val, i32 %sel, 1
  resume { ptr, i32 } %lpad.val4
}